Archive member included to satisfy reference by file (symbol)

libsos.a(_idt.o)              init.o (idtinfo)
libsos.a(_syscall.o)          init.o (syscall_entry)
libsos.a(fast-handlers.o)     /home/harry/Desktop/SOS/obj/arch.o (x86_dev_pit_8253_handler)

Discarded input sections

 .debug_info    0x0000000000000000      0x150 kernel.o
 .debug_abbrev  0x0000000000000000       0x7a kernel.o
 .debug_aranges
                0x0000000000000000       0x30 kernel.o
 .debug_line    0x0000000000000000       0x89 kernel.o
 .debug_str     0x0000000000000000      0x253 kernel.o
 .eh_frame      0x0000000000000000       0x50 kernel.o
 .debug_info    0x0000000000000000      0x247 b__kernel.o
 .debug_abbrev  0x0000000000000000       0xcd b__kernel.o
 .debug_aranges
                0x0000000000000000       0x30 b__kernel.o
 .debug_line    0x0000000000000000       0x7b b__kernel.o
 .debug_str     0x0000000000000000      0x3f4 b__kernel.o
 .eh_frame      0x0000000000000000       0x58 b__kernel.o
 .debug_info    0x0000000000000000       0x66 /home/harry/Desktop/SOS/obj/common.o
 .debug_abbrev  0x0000000000000000       0x4d /home/harry/Desktop/SOS/obj/common.o
 .debug_aranges
                0x0000000000000000       0x20 /home/harry/Desktop/SOS/obj/common.o
 .debug_line    0x0000000000000000       0x47 /home/harry/Desktop/SOS/obj/common.o
 .debug_str     0x0000000000000000      0x21c /home/harry/Desktop/SOS/obj/common.o
 .debug_info    0x0000000000000000      0x7d6 /home/harry/Desktop/SOS/obj/console.o
 .debug_abbrev  0x0000000000000000      0x204 /home/harry/Desktop/SOS/obj/console.o
 .debug_aranges
                0x0000000000000000       0x30 /home/harry/Desktop/SOS/obj/console.o
 .debug_line    0x0000000000000000      0x1ed /home/harry/Desktop/SOS/obj/console.o
 .debug_str     0x0000000000000000      0x650 /home/harry/Desktop/SOS/obj/console.o
 .eh_frame      0x0000000000000000      0x220 /home/harry/Desktop/SOS/obj/console.o
 .debug_line    0x0000000000000000        0x0 /home/harry/Desktop/SOS/obj/consoleb.o
 .debug_str     0x0000000000000000      0x19a /home/harry/Desktop/SOS/obj/consoleb.o
 .debug_info    0x0000000000000000      0x3ac /home/harry/Desktop/SOS/obj/mmap.o
 .debug_abbrev  0x0000000000000000      0x175 /home/harry/Desktop/SOS/obj/mmap.o
 .debug_aranges
                0x0000000000000000       0x30 /home/harry/Desktop/SOS/obj/mmap.o
 .debug_line    0x0000000000000000      0x141 /home/harry/Desktop/SOS/obj/mmap.o
 .debug_str     0x0000000000000000      0x337 /home/harry/Desktop/SOS/obj/mmap.o
 .eh_frame      0x0000000000000000      0x170 /home/harry/Desktop/SOS/obj/mmap.o
 .debug_info    0x0000000000000000       0x55 /home/harry/Desktop/SOS/obj/multiboot.o
 .debug_abbrev  0x0000000000000000       0x42 /home/harry/Desktop/SOS/obj/multiboot.o
 .debug_aranges
                0x0000000000000000       0x20 /home/harry/Desktop/SOS/obj/multiboot.o
 .debug_line    0x0000000000000000       0x56 /home/harry/Desktop/SOS/obj/multiboot.o
 .debug_str     0x0000000000000000      0x230 /home/harry/Desktop/SOS/obj/multiboot.o
 .eh_frame      0x0000000000000000       0x98 /home/harry/Desktop/SOS/obj/multiboot.o
 .debug_line    0x0000000000000000        0x0 /home/harry/Desktop/SOS/obj/x86.o
 .debug_str     0x0000000000000000      0x1a1 /home/harry/Desktop/SOS/obj/x86.o
 .debug_info    0x0000000000000000      0x20b /home/harry/Desktop/SOS/obj/x86-debug.o
 .debug_abbrev  0x0000000000000000      0x104 /home/harry/Desktop/SOS/obj/x86-debug.o
 .debug_aranges
                0x0000000000000000       0x30 /home/harry/Desktop/SOS/obj/x86-debug.o
 .debug_line    0x0000000000000000      0x12e /home/harry/Desktop/SOS/obj/x86-debug.o
 .debug_str     0x0000000000000000      0x34f /home/harry/Desktop/SOS/obj/x86-debug.o
 .eh_frame      0x0000000000000000       0x50 /home/harry/Desktop/SOS/obj/x86-debug.o
 .debug_line    0x0000000000000000        0x0 /home/harry/Desktop/SOS/obj/x86-dev.o
 .debug_str     0x0000000000000000      0x1a9 /home/harry/Desktop/SOS/obj/x86-dev.o
 .debug_info    0x0000000000000000       0xa2 /home/harry/Desktop/SOS/obj/x86-dev-pit_8253.o
 .debug_abbrev  0x0000000000000000       0x67 /home/harry/Desktop/SOS/obj/x86-dev-pit_8253.o
 .debug_aranges
                0x0000000000000000       0x30 /home/harry/Desktop/SOS/obj/x86-dev-pit_8253.o
 .debug_line    0x0000000000000000       0x7b /home/harry/Desktop/SOS/obj/x86-dev-pit_8253.o
 .debug_str     0x0000000000000000      0x254 /home/harry/Desktop/SOS/obj/x86-dev-pit_8253.o
 .eh_frame      0x0000000000000000       0x78 /home/harry/Desktop/SOS/obj/x86-dev-pit_8253.o
 .debug_info    0x0000000000000000      0x33f /home/harry/Desktop/SOS/obj/x86-dev-vga_console.o
 .debug_abbrev  0x0000000000000000      0x1a8 /home/harry/Desktop/SOS/obj/x86-dev-vga_console.o
 .debug_aranges
                0x0000000000000000       0x30 /home/harry/Desktop/SOS/obj/x86-dev-vga_console.o
 .debug_line    0x0000000000000000      0x144 /home/harry/Desktop/SOS/obj/x86-dev-vga_console.o
 .debug_str     0x0000000000000000      0x4f1 /home/harry/Desktop/SOS/obj/x86-dev-vga_console.o
 .eh_frame      0x0000000000000000       0xd8 /home/harry/Desktop/SOS/obj/x86-dev-vga_console.o
 .debug_info    0x0000000000000000      0x356 /home/harry/Desktop/SOS/obj/x86-interrupts.o
 .debug_abbrev  0x0000000000000000      0x187 /home/harry/Desktop/SOS/obj/x86-interrupts.o
 .debug_aranges
                0x0000000000000000       0x30 /home/harry/Desktop/SOS/obj/x86-interrupts.o
 .debug_line    0x0000000000000000      0x10d /home/harry/Desktop/SOS/obj/x86-interrupts.o
 .debug_str     0x0000000000000000      0x6d1 /home/harry/Desktop/SOS/obj/x86-interrupts.o
 .eh_frame      0x0000000000000000       0xe8 /home/harry/Desktop/SOS/obj/x86-interrupts.o
 .debug_info    0x0000000000000000      0x3db /home/harry/Desktop/SOS/obj/x86-dev-rtc.o
 .debug_abbrev  0x0000000000000000      0x14d /home/harry/Desktop/SOS/obj/x86-dev-rtc.o
 .debug_aranges
                0x0000000000000000       0x30 /home/harry/Desktop/SOS/obj/x86-dev-rtc.o
 .debug_line    0x0000000000000000      0x155 /home/harry/Desktop/SOS/obj/x86-dev-rtc.o
 .debug_str     0x0000000000000000      0x320 /home/harry/Desktop/SOS/obj/x86-dev-rtc.o
 .eh_frame      0x0000000000000000       0xd8 /home/harry/Desktop/SOS/obj/x86-dev-rtc.o
 .debug_info    0x0000000000000000      0x679 /home/harry/Desktop/SOS/obj/x86-dev-pic_8259a.o
 .debug_abbrev  0x0000000000000000      0x284 /home/harry/Desktop/SOS/obj/x86-dev-pic_8259a.o
 .debug_aranges
                0x0000000000000000       0x30 /home/harry/Desktop/SOS/obj/x86-dev-pic_8259a.o
 .debug_line    0x0000000000000000      0x118 /home/harry/Desktop/SOS/obj/x86-dev-pic_8259a.o
 .debug_str     0x0000000000000000      0x8b4 /home/harry/Desktop/SOS/obj/x86-dev-pic_8259a.o
 .eh_frame      0x0000000000000000      0x1c8 /home/harry/Desktop/SOS/obj/x86-dev-pic_8259a.o
 .debug_info    0x0000000000000000      0x459 /home/harry/Desktop/SOS/obj/x86-dev-keyboard.o
 .debug_abbrev  0x0000000000000000      0x1bb /home/harry/Desktop/SOS/obj/x86-dev-keyboard.o
 .debug_aranges
                0x0000000000000000       0x30 /home/harry/Desktop/SOS/obj/x86-dev-keyboard.o
 .debug_line    0x0000000000000000      0x168 /home/harry/Desktop/SOS/obj/x86-dev-keyboard.o
 .debug_str     0x0000000000000000      0x69f /home/harry/Desktop/SOS/obj/x86-dev-keyboard.o
 .eh_frame      0x0000000000000000      0x118 /home/harry/Desktop/SOS/obj/x86-dev-keyboard.o
 .debug_info    0x0000000000000000      0x48a /home/harry/Desktop/SOS/obj/arch.o
 .debug_abbrev  0x0000000000000000      0x1e3 /home/harry/Desktop/SOS/obj/arch.o
 .debug_aranges
                0x0000000000000000       0x30 /home/harry/Desktop/SOS/obj/arch.o
 .debug_line    0x0000000000000000      0x1bd /home/harry/Desktop/SOS/obj/arch.o
 .debug_str     0x0000000000000000      0x586 /home/harry/Desktop/SOS/obj/arch.o
 .eh_frame      0x0000000000000000       0xa8 /home/harry/Desktop/SOS/obj/arch.o
 .debug_info    0x0000000000000000      0x56b /home/harry/Desktop/SOS/obj/error.o
 .debug_abbrev  0x0000000000000000      0x11c /home/harry/Desktop/SOS/obj/error.o
 .debug_aranges
                0x0000000000000000       0x30 /home/harry/Desktop/SOS/obj/error.o
 .debug_line    0x0000000000000000      0x1c0 /home/harry/Desktop/SOS/obj/error.o
 .debug_str     0x0000000000000000      0x568 /home/harry/Desktop/SOS/obj/error.o
 .eh_frame      0x0000000000000000       0xe8 /home/harry/Desktop/SOS/obj/error.o
 .debug_info    0x0000000000000000      0x1ba /home/harry/Desktop/SOS/obj/input.o
 .debug_abbrev  0x0000000000000000       0xd6 /home/harry/Desktop/SOS/obj/input.o
 .debug_aranges
                0x0000000000000000       0x30 /home/harry/Desktop/SOS/obj/input.o
 .debug_line    0x0000000000000000       0xad /home/harry/Desktop/SOS/obj/input.o
 .debug_str     0x0000000000000000      0x266 /home/harry/Desktop/SOS/obj/input.o
 .eh_frame      0x0000000000000000       0xc0 /home/harry/Desktop/SOS/obj/input.o
 .debug_info    0x0000000000000000       0xa4 /home/harry/Desktop/SOS/obj/syscall.o
 .debug_abbrev  0x0000000000000000       0x6e /home/harry/Desktop/SOS/obj/syscall.o
 .debug_aranges
                0x0000000000000000       0x30 /home/harry/Desktop/SOS/obj/syscall.o
 .debug_line    0x0000000000000000       0x94 /home/harry/Desktop/SOS/obj/syscall.o
 .debug_str     0x0000000000000000      0x220 /home/harry/Desktop/SOS/obj/syscall.o
 .eh_frame      0x0000000000000000       0x60 /home/harry/Desktop/SOS/obj/syscall.o
 .debug_info    0x0000000000000000      0x82c /home/harry/Desktop/SOS/obj/x86-vm.o
 .debug_abbrev  0x0000000000000000      0x25f /home/harry/Desktop/SOS/obj/x86-vm.o
 .debug_aranges
                0x0000000000000000       0x30 /home/harry/Desktop/SOS/obj/x86-vm.o
 .debug_line    0x0000000000000000      0x225 /home/harry/Desktop/SOS/obj/x86-vm.o
 .debug_str     0x0000000000000000      0x684 /home/harry/Desktop/SOS/obj/x86-vm.o
 .eh_frame      0x0000000000000000      0x238 /home/harry/Desktop/SOS/obj/x86-vm.o
 .debug_info    0x0000000000000000      0x97e /home/harry/Desktop/SOS/obj/x86-vm2.o
 .debug_abbrev  0x0000000000000000      0x296 /home/harry/Desktop/SOS/obj/x86-vm2.o
 .debug_aranges
                0x0000000000000000       0x30 /home/harry/Desktop/SOS/obj/x86-vm2.o
 .debug_line    0x0000000000000000      0x26e /home/harry/Desktop/SOS/obj/x86-vm2.o
 .debug_str     0x0000000000000000      0x834 /home/harry/Desktop/SOS/obj/x86-vm2.o
 .eh_frame      0x0000000000000000      0x328 /home/harry/Desktop/SOS/obj/x86-vm2.o
 .debug_info    0x0000000000000000      0x38f /home/harry/Desktop/SOS/obj/kernelinteract.o
 .debug_abbrev  0x0000000000000000      0x115 /home/harry/Desktop/SOS/obj/kernelinteract.o
 .debug_aranges
                0x0000000000000000       0x30 /home/harry/Desktop/SOS/obj/kernelinteract.o
 .debug_line    0x0000000000000000      0x109 /home/harry/Desktop/SOS/obj/kernelinteract.o
 .debug_str     0x0000000000000000      0x329 /home/harry/Desktop/SOS/obj/kernelinteract.o
 .eh_frame      0x0000000000000000       0x60 /home/harry/Desktop/SOS/obj/kernelinteract.o

Memory Configuration

Name             Origin             Length             Attributes
*default*        0x0000000000000000 0xffffffffffffffff

Linker script and memory map

LOAD init.o
LOAD kernel.o
LOAD b__kernel.o
LOAD /home/harry/Desktop/SOS/obj/common.o
LOAD /home/harry/Desktop/SOS/obj/console.o
LOAD /home/harry/Desktop/SOS/obj/consoleb.o
LOAD /home/harry/Desktop/SOS/obj/mmap.o
LOAD /home/harry/Desktop/SOS/obj/multiboot.o
LOAD /home/harry/Desktop/SOS/obj/x86.o
LOAD /home/harry/Desktop/SOS/obj/x86-debug.o
LOAD /home/harry/Desktop/SOS/obj/x86-dev.o
LOAD /home/harry/Desktop/SOS/obj/x86-dev-pit_8253.o
LOAD /home/harry/Desktop/SOS/obj/x86-dev-vga_console.o
LOAD /home/harry/Desktop/SOS/obj/x86-interrupts.o
LOAD /home/harry/Desktop/SOS/obj/x86-dev-rtc.o
LOAD /home/harry/Desktop/SOS/obj/x86-dev-pic_8259a.o
LOAD /home/harry/Desktop/SOS/obj/x86-dev-keyboard.o
LOAD /home/harry/Desktop/SOS/obj/arch.o
LOAD /home/harry/Desktop/SOS/obj/error.o
LOAD /home/harry/Desktop/SOS/obj/input.o
LOAD /home/harry/Desktop/SOS/obj/syscall.o
LOAD /home/harry/Desktop/SOS/obj/x86-vm.o
LOAD /home/harry/Desktop/SOS/obj/x86-vm2.o
LOAD /home/harry/Desktop/SOS/obj/kernelinteract.o
LOAD libsos.a
                0x0000000000100000                . = 0x100000

.text           0x0000000000100000     0x5f0a
 *(.multiboot_header)
 .multiboot_header
                0x0000000000100000       0x18 init.o
 *(.stubs)
 .stubs         0x0000000000100018      0x231 libsos.a(_idt.o)
 init.o(.entry)
 .entry         0x0000000000100249       0xcf init.o
                0x0000000000100249                _entry
 *(.text)
 .text          0x0000000000100318        0x0 init.o
 .text          0x0000000000100318      0x24e kernel.o
                0x0000000000100318                _ada_kernel
 .text          0x0000000000100566      0x13f b__kernel.o
                0x0000000000100566                adainit
                0x0000000000100688                main
 .text          0x00000000001006a5        0x0 /home/harry/Desktop/SOS/obj/common.o
 *fill*         0x00000000001006a5        0x1 
 .text          0x00000000001006a6      0x6a0 /home/harry/Desktop/SOS/obj/console.o
                0x00000000001006a6                console(char,...)(long, long, int0_t)
                0x00000000001006b8                console__TvmemBIP
                0x00000000001006d4                console__at_x
                0x00000000001006ea                console__set_colour
                0x0000000000100712                console__clear
                0x0000000000100722                console__put
                0x000000000010080a                console__put__2
                0x000000000010088e                console__put_line
                0x00000000001008c6                console__put_hex__2
                0x00000000001008e0                console__put_hex
                0x0000000000100924                console__put__4
                0x000000000010095c                console__put__3
                0x00000000001009ea                console__banner
                0x0000000000100afa                console__put_size
                0x0000000000100c44                console__shift_lines
 .text          0x0000000000100d46        0x0 /home/harry/Desktop/SOS/obj/consoleb.o
 .text          0x0000000000100d46      0x948 /home/harry/Desktop/SOS/obj/mmap.o
                0x0000000000100d46                mmap__nodeIP
                0x0000000000100d54                mmap__Tnode_listBIP
                0x0000000000100d70                mmap__initialise
                0x0000000000100de8                mmap__get_base
                0x0000000000100df6                mmap__get_length
                0x0000000000100e50                mmap__allocate
                0x000000000010103e                mmap(float, long double,...)(...)
                0x00000000001013a6                mmap__print
                0x0000000000101626                mmap___elabb
 .text          0x000000000010168e       0x90 /home/harry/Desktop/SOS/obj/multiboot.o
                0x000000000010168e                multiboot__memory_typeRP
                0x00000000001016e2                multiboot__memory_entryIP
                0x00000000001016f0                multiboot__memory_entriesIP
                0x000000000010170c                multiboot__base_tagIP
 .text          0x000000000010171e        0x0 /home/harry/Desktop/SOS/obj/x86.o
 .text          0x000000000010171e      0x2cc /home/harry/Desktop/SOS/obj/x86-debug.o
                0x000000000010171e                x86__debug__print_multiboot_map
 .text          0x00000000001019ea        0x0 /home/harry/Desktop/SOS/obj/x86-dev.o
 .text          0x00000000001019ea       0x37 /home/harry/Desktop/SOS/obj/x86-dev-pit_8253.o
                0x00000000001019ea                x86__dev__pit_8253__handler
                0x0000000000101a02                x86__dev__pit_8253__get_ticks
                0x0000000000101a10                x86__dev__pit_8253__reset
 *fill*         0x0000000000101a21        0x1 
 .text          0x0000000000101a22      0x242 /home/harry/Desktop/SOS/obj/x86-dev-vga_console.o
                0x0000000000101a22                x86__dev__vga_console(char,...)(long, long, int0_t)
                0x0000000000101a34                x86__dev__vga_console__TvmemBIP
                0x0000000000101a50                x86__dev__vga_console__at_x
                0x0000000000101a66                x86__dev__vga_console__put
                0x0000000000101b50                x86__dev__vga_console__shift_lines
                0x0000000000101c54                x86__dev__vga_console__clear
 .text          0x0000000000101c64      0x324 /home/harry/Desktop/SOS/obj/x86-interrupts.o
                0x0000000000101c64                x86__interrupts__interruptRP
                0x0000000000101daa                x86__interrupts__idt_entryIP
                0x0000000000101e00                x86__interrupts__TtableBIP
                0x0000000000101e90                x86__interrupts__Thandler_tableBIP
                0x0000000000101eac                x86__interrupts__slow_handler
                0x0000000000101ee0                x86__interrupts__register_handler
 .text          0x0000000000101f88      0x202 /home/harry/Desktop/SOS/obj/x86-dev-rtc.o
                0x0000000000101f88                x86__dev__rtc__time_unitRP
                0x0000000000101fee                x86__dev__rtc__status_registerRP
                0x000000000010201c                x86__dev__rtc__handler
                0x0000000000102072                x86__dev__rtc__read_time
                0x000000000010207a                x86__dev__rtc__initialise
                0x000000000010217c                x86__dev__rtc__get_ticks
 .text          0x000000000010218a      0x560 /home/harry/Desktop/SOS/obj/x86-dev-pic_8259a.o
                0x000000000010218a                x86__dev__pic_8259a__Tbit_fieldBIP
                0x00000000001021a6                x86__dev__pic_8259a__control_wordD2
                0x00000000001021c8                x86__dev__pic_8259a__control_wordD3
                0x00000000001021ea                x86__dev__pic_8259a__control_wordD4
                0x000000000010220c                x86__dev__pic_8259a__control_wordD5
                0x000000000010222e                x86__dev__pic_8259a__control_wordD6
                0x000000000010229e                x86__dev__pic_8259a__control_wordEQ
                0x0000000000102512                x86__dev__pic_8259a__control_wordIP
                0x0000000000102560                x86__dev__pic_8259a__send
                0x00000000001025aa                x86__dev__pic_8259a__initialise
                0x00000000001026da                x86__dev__pic_8259a__send_eoi
 .text          0x00000000001026ea      0x330 /home/harry/Desktop/SOS/obj/x86-dev-keyboard.o
                0x00000000001026ea                x86__dev__keyboard__Tkey_bufferBIP
                0x0000000000102706                x86__dev__keyboard__handler
                0x0000000000102904                x86__dev__keyboard__flush
                0x0000000000102996                x86__dev__keyboard__has_input
                0x00000000001029b0                x86__dev__keyboard__get_character
                0x00000000001029fe                x86__dev__keyboard__has_line
                0x0000000000102a0c                x86__dev__keyboard__get_ticks
 .text          0x0000000000102a1a      0x37a /home/harry/Desktop/SOS/obj/arch.o
                0x0000000000102a1a                arch__initialise_interrupts
                0x0000000000102cb6                arch__scout_memory
 .text          0x0000000000102d94      0xbad /home/harry/Desktop/SOS/obj/error.o
                0x0000000000102d94                error__panic
                0x0000000000102e0c                _ada_cpu_exception
                0x00000000001037f2                __gnat_last_chance_handler
 *fill*         0x0000000000103941        0x1 
 .text          0x0000000000103942      0x14c /home/harry/Desktop/SOS/obj/input.o
                0x0000000000103942                input__enable_cursor
                0x000000000010394a                input__disable_cursor
                0x0000000000103952                input__get_word
                0x00000000001039d0                input__get_line
                0x0000000000103a60                input__get_char
 .text          0x0000000000103a8e       0x8d /home/harry/Desktop/SOS/obj/syscall.o
                0x0000000000103a8e                syscall__handle
 *fill*         0x0000000000103b1b        0x1 
 .text          0x0000000000103b1c      0xbea /home/harry/Desktop/SOS/obj/x86-vm.o
                0x0000000000103b1c                x86__vm__Ttable_offsetsBIP
                0x0000000000103b38                x86__vm__TtablesBIP
                0x0000000000103b54                x86__vm__page_table_entryIP
                0x0000000000103b66                x86__vm__page_table_entryPredicate
                0x0000000000103baa                x86__vm__Tpage_tableBIP
                0x0000000000103bc6                x86__vm__Tpage_bit_arrayBIP
                0x0000000000103e18                x86__vm__map_page
                0x0000000000103e78                x86__vm__create_mapping
                0x000000000010468c                x86__vm__dump_pages
 .text          0x0000000000104706      0xcdb /home/harry/Desktop/SOS/obj/x86-vm2.o
                0x0000000000104706                x86__vm2__flags_typePredicate
                0x0000000000104728                x86__vm2__TtableBIP
                0x0000000000104744                x86__vm2__Tpage_bit_arrayBIP
                0x0000000000104760                x86__vm2__Ttable_offsetsBIP
                0x000000000010477c                x86__vm2__TtablesBIP
                0x0000000000104798                x86__vm2__TdirectoriesBIP
                0x00000000001047b4                x86__vm2__make_directory_entry
                0x00000000001047d0                x86__vm2__make_frame_entry
                0x00000000001047ec                x86__vm2__get_directory_address
                0x000000000010480a                x86__vm2__get_frame_address
                0x0000000000104828                x86__vm2__get_free_dir_page
                0x00000000001048ec                x86__vm2__get_directory_ref
                0x0000000000104914                x86__vm2__has_free_dir_page
                0x0000000000104aea                x86__vm2__create_mapping
                0x0000000000104cbe                x86__vm2__initialise
                0x000000000010536a                x86__vm2__dump_pages
                0x00000000001053d6                x86__vm2___elabb
 *fill*         0x00000000001053e1        0x1 
 .text          0x00000000001053e2      0xaf4 /home/harry/Desktop/SOS/obj/kernelinteract.o
                0x0000000000105490                _ada_kernelinteract
 .text          0x0000000000105ed6        0x0 libsos.a(_idt.o)
 .text          0x0000000000105ed6       0x18 libsos.a(_syscall.o)
                0x0000000000105ed6                syscall_entry
 .text          0x0000000000105eee       0x1c libsos.a(fast-handlers.o)
                0x0000000000105eee                x86_dev_pit_8253_handler
                0x0000000000105ef8                x86_dev_rtc_handler

.rodata         0x0000000000105f20     0x10d8
 .rodata        0x0000000000105f20       0xf0 kernel.o
 *fill*         0x0000000000106010       0x10 
 .rodata        0x0000000000106020       0x3c b__kernel.o
                0x0000000000106020                __gnat_version
                0x0000000000106050                __gnat_ada_main_program_name
 *fill*         0x000000000010605c        0x4 
 .rodata        0x0000000000106060        0x8 /home/harry/Desktop/SOS/obj/common.o
                0x0000000000106060                common__null_address
 *fill*         0x0000000000106068        0x8 
 .rodata        0x0000000000106070       0x50 /home/harry/Desktop/SOS/obj/console.o
                0x0000000000106098                console__width
                0x000000000010609c                console__height
                0x00000000001060a0                console(long, float)
 .rodata        0x00000000001060c0       0x54 /home/harry/Desktop/SOS/obj/mmap.o
                0x0000000000106108                mmap__max_allocations
                0x000000000010610c                mmap__head
                0x0000000000106110                mmap__tail
 *fill*         0x0000000000106114        0xc 
 .rodata        0x0000000000106120       0x10 /home/harry/Desktop/SOS/obj/multiboot.o
                0x0000000000106120                multiboot__memory_typeA
 .rodata        0x0000000000106130       0x60 /home/harry/Desktop/SOS/obj/x86-debug.o
 .rodata        0x0000000000106190       0x10 /home/harry/Desktop/SOS/obj/x86-dev-vga_console.o
                0x0000000000106190                x86__dev__vga_console__width
                0x0000000000106194                x86__dev__vga_console__height
 .rodata        0x00000000001061a0      0x1a1 /home/harry/Desktop/SOS/obj/x86-interrupts.o
                0x0000000000106320                x86__interrupts__interruptA
 *fill*         0x0000000000106341        0x7 
 .rodata        0x0000000000106348      0x1a1 /home/harry/Desktop/SOS/obj/x86-dev-rtc.o
                0x00000000001064e0                x86__dev__rtc__time_unitA
                0x00000000001064e8                x86__dev__rtc__status_registerA
 *fill*         0x00000000001064e9        0x7 
 .rodata        0x00000000001064f0       0x10 /home/harry/Desktop/SOS/obj/x86-dev-pic_8259a.o
                0x00000000001064f0                x86__dev__pic_8259a__irq_base
                0x00000000001064f8                x86__dev__pic_8259a__port
 .rodata        0x0000000000106500       0x54 /home/harry/Desktop/SOS/obj/x86-dev-keyboard.o
                0x0000000000106500                x86__dev__keyboard__null_character
                0x0000000000106501                x86__dev__keyboard__backspace
                0x0000000000106502                x86__dev__keyboard__tab
                0x0000000000106503                x86__dev__keyboard(long, float)
                0x0000000000106510                x86__dev__keyboard__num_row
                0x0000000000106520                x86__dev__keyboard__first_row
                0x0000000000106530                x86__dev__keyboard__second_row
                0x0000000000106540                x86__dev__keyboard__third_row
                0x0000000000106550                x86__dev__keyboard__command_port
                0x0000000000106552                x86__dev__keyboard__data_port
 *fill*         0x0000000000106554        0x4 
 .rodata        0x0000000000106558       0x70 /home/harry/Desktop/SOS/obj/arch.o
 .rodata        0x00000000001065c8      0x580 /home/harry/Desktop/SOS/obj/error.o
 .rodata        0x0000000000106b48       0x28 /home/harry/Desktop/SOS/obj/syscall.o
 .rodata        0x0000000000106b70      0x120 /home/harry/Desktop/SOS/obj/x86-vm.o
 .rodata        0x0000000000106c90       0xa0 /home/harry/Desktop/SOS/obj/x86-vm2.o
                0x0000000000106ce0                x86__vm2__directories
                0x0000000000106cf0                x86__vm2__shifts
 .rodata        0x0000000000106d30      0x2c8 /home/harry/Desktop/SOS/obj/kernelinteract.o

.iplt           0x0000000000106ff8        0x0
 .iplt          0x0000000000106ff8        0x0 init.o

.rela.dyn       0x0000000000106ff8        0x0
 .rela.got      0x0000000000106ff8        0x0 init.o
 .rela.iplt     0x0000000000106ff8        0x0 init.o

/DISCARD/
 *(.eh_frame)
 *(.debug_info)
 *(.debug_abbrev)
 *(.debug_aranges)
 *(.debug_line)
 *(.debug_str)

.bss            0x0000000000107000    0x24bd0
 *(.bss)
 .bss           0x0000000000107000     0x5000 init.o
 .bss           0x000000000010c000        0x0 kernel.o
 .bss           0x000000000010c000        0x0 b__kernel.o
 .bss           0x000000000010c000        0x0 /home/harry/Desktop/SOS/obj/common.o
 .bss           0x000000000010c000        0x0 /home/harry/Desktop/SOS/obj/console.o
 .bss           0x000000000010c000        0x0 /home/harry/Desktop/SOS/obj/consoleb.o
 .bss           0x000000000010c000    0x17718 /home/harry/Desktop/SOS/obj/mmap.o
                0x000000000010c000                mmap__free_nodes
 .bss           0x0000000000123718        0x0 /home/harry/Desktop/SOS/obj/multiboot.o
 .bss           0x0000000000123718        0x0 /home/harry/Desktop/SOS/obj/x86.o
 .bss           0x0000000000123718        0x0 /home/harry/Desktop/SOS/obj/x86-debug.o
 .bss           0x0000000000123718        0x0 /home/harry/Desktop/SOS/obj/x86-dev.o
 .bss           0x0000000000123718        0x0 /home/harry/Desktop/SOS/obj/x86-dev-pit_8253.o
 .bss           0x0000000000123718        0x0 /home/harry/Desktop/SOS/obj/x86-dev-vga_console.o
 .bss           0x0000000000123718        0x0 /home/harry/Desktop/SOS/obj/x86-interrupts.o
 .bss           0x0000000000123718        0x0 /home/harry/Desktop/SOS/obj/x86-dev-rtc.o
 .bss           0x0000000000123718        0x0 /home/harry/Desktop/SOS/obj/x86-dev-pic_8259a.o
 *fill*         0x0000000000123718        0x8 
 .bss           0x0000000000123720       0x43 /home/harry/Desktop/SOS/obj/x86-dev-keyboard.o
                0x0000000000123720                x86__dev__keyboard(bool, float __restrict, float,...)(long double)
                0x0000000000123760                x86__dev__keyboard__write_head
                0x0000000000123761                x86__dev__keyboard__read_tail
                0x0000000000123762                x86__dev__keyboard__has_line_flag
 .bss           0x0000000000123763        0x0 /home/harry/Desktop/SOS/obj/arch.o
 .bss           0x0000000000123763        0x0 /home/harry/Desktop/SOS/obj/error.o
 .bss           0x0000000000123763        0x0 /home/harry/Desktop/SOS/obj/input.o
 .bss           0x0000000000123763        0x0 /home/harry/Desktop/SOS/obj/syscall.o
 *fill*         0x0000000000123763       0x1d 
 .bss           0x0000000000123780     0x8001 /home/harry/Desktop/SOS/obj/x86-vm.o
 *fill*         0x000000000012b781       0x1f 
 .bss           0x000000000012b7a0       0x40 /home/harry/Desktop/SOS/obj/x86-vm2.o
                0x000000000012b7a0                x86__vm2__dir_pages
 .bss           0x000000000012b7e0        0x0 /home/harry/Desktop/SOS/obj/kernelinteract.o
 .bss           0x000000000012b7e0      0x3f0 libsos.a(_idt.o)
                0x000000000012b7e0                handler_table
 .bss           0x000000000012bbd0        0x0 libsos.a(_syscall.o)
 .bss           0x000000000012bbd0        0x0 libsos.a(fast-handlers.o)

.data           0x000000000012c000      0x60a
 *(.data)
 .data          0x000000000012c000      0x150 init.o
                0x000000000012c148                bootinfo
 .data          0x000000000012c150        0x0 kernel.o
 .data          0x000000000012c150        0x2 b__kernel.o
                0x000000000012c150                ada_main_E
 .data          0x000000000012c152        0x2 /home/harry/Desktop/SOS/obj/common.o
                0x000000000012c152                common_E
 .data          0x000000000012c154        0xe /home/harry/Desktop/SOS/obj/console.o
                0x000000000012c154                console_E
 .data          0x000000000012c162        0x2 /home/harry/Desktop/SOS/obj/consoleb.o
                0x000000000012c162                consoleb_E
 *fill*         0x000000000012c164        0x4 
 .data          0x000000000012c168       0x20 /home/harry/Desktop/SOS/obj/mmap.o
                0x000000000012c168                mmap_E
                0x000000000012c170                mmap__address_base
                0x000000000012c178                mmap__allocation_unit
                0x000000000012c180                mmap__max_length
 .data          0x000000000012c188        0x2 /home/harry/Desktop/SOS/obj/multiboot.o
                0x000000000012c188                multiboot_E
 .data          0x000000000012c18a        0x2 /home/harry/Desktop/SOS/obj/x86.o
                0x000000000012c18a                x86_E
 .data          0x000000000012c18c        0x2 /home/harry/Desktop/SOS/obj/x86-debug.o
                0x000000000012c18c                x86__debug_E
 .data          0x000000000012c18e        0x2 /home/harry/Desktop/SOS/obj/x86-dev.o
                0x000000000012c18e                x86__dev_E
 .data          0x000000000012c190       0x10 /home/harry/Desktop/SOS/obj/x86-dev-pit_8253.o
                0x000000000012c190                x86__dev__pit_8253_E
                0x000000000012c198                x86_dev_pit_8253_ticks
 .data          0x000000000012c1a0        0xc /home/harry/Desktop/SOS/obj/x86-dev-vga_console.o
                0x000000000012c1a0                x86__dev__vga_console_E
 .data          0x000000000012c1ac        0x2 /home/harry/Desktop/SOS/obj/x86-interrupts.o
                0x000000000012c1ac                x86__interrupts_E
 *fill*         0x000000000012c1ae        0x2 
 .data          0x000000000012c1b0       0x10 /home/harry/Desktop/SOS/obj/x86-dev-rtc.o
                0x000000000012c1b0                x86__dev__rtc_E
                0x000000000012c1b2                x86__dev__rtc__selector_port
                0x000000000012c1b4                x86__dev__rtc__data_port
                0x000000000012c1b8                x86_dev_rtc_ticks
 .data          0x000000000012c1c0        0x2 /home/harry/Desktop/SOS/obj/x86-dev-pic_8259a.o
                0x000000000012c1c0                x86__dev__pic_8259a_E
 *fill*         0x000000000012c1c2        0x6 
 .data          0x000000000012c1c8       0x18 /home/harry/Desktop/SOS/obj/x86-dev-keyboard.o
                0x000000000012c1c8                x86__dev__keyboard_E
                0x000000000012c1d0                x86__dev__keyboard__ticks
                0x000000000012c1d8                x86__dev__keyboard__caps_lock
                0x000000000012c1dc                x86__dev__keyboard__shifts
 .data          0x000000000012c1e0        0x2 /home/harry/Desktop/SOS/obj/arch.o
                0x000000000012c1e0                arch_E
 .data          0x000000000012c1e2        0x2 /home/harry/Desktop/SOS/obj/error.o
                0x000000000012c1e2                error_E
 .data          0x000000000012c1e4        0x2 /home/harry/Desktop/SOS/obj/input.o
                0x000000000012c1e4                input_E
 .data          0x000000000012c1e6        0x2 /home/harry/Desktop/SOS/obj/syscall.o
                0x000000000012c1e6                syscall_E
 .data          0x000000000012c1e8        0x2 /home/harry/Desktop/SOS/obj/x86-vm.o
                0x000000000012c1e8                x86__vm_E
 .data          0x000000000012c1ea        0x2 /home/harry/Desktop/SOS/obj/x86-vm2.o
                0x000000000012c1ea                x86__vm2_E
 .data          0x000000000012c1ec        0x0 /home/harry/Desktop/SOS/obj/kernelinteract.o
 *fill*         0x000000000012c1ec       0x14 
 .data          0x000000000012c200      0x40a libsos.a(_idt.o)
                0x000000000012c200                IDT
                0x000000000012c600                idtinfo
 .data          0x000000000012c60a        0x0 libsos.a(_syscall.o)
 .data          0x000000000012c60a        0x0 libsos.a(fast-handlers.o)
OUTPUT(/home/harry/Desktop/SOS/dist//kernel elf64-x86-64)

.got            0x000000000012c610        0x0
 .got           0x000000000012c610        0x0 init.o

.got.plt        0x000000000012c610        0x0
 .got.plt       0x000000000012c610        0x0 init.o

.igot.plt       0x000000000012c610        0x0
 .igot.plt      0x000000000012c610        0x0 init.o

.comment        0x0000000000000000       0x3d
 .comment       0x0000000000000000       0x3d kernel.o
                                         0x3e (size before relaxing)
 .comment       0x000000000000003d       0x3e b__kernel.o
 .comment       0x000000000000003d       0x3e /home/harry/Desktop/SOS/obj/common.o
 .comment       0x000000000000003d       0x3e /home/harry/Desktop/SOS/obj/console.o
 .comment       0x000000000000003d       0x3e /home/harry/Desktop/SOS/obj/consoleb.o
 .comment       0x000000000000003d       0x3e /home/harry/Desktop/SOS/obj/mmap.o
 .comment       0x000000000000003d       0x3e /home/harry/Desktop/SOS/obj/multiboot.o
 .comment       0x000000000000003d       0x3e /home/harry/Desktop/SOS/obj/x86.o
 .comment       0x000000000000003d       0x3e /home/harry/Desktop/SOS/obj/x86-debug.o
 .comment       0x000000000000003d       0x3e /home/harry/Desktop/SOS/obj/x86-dev.o
 .comment       0x000000000000003d       0x3e /home/harry/Desktop/SOS/obj/x86-dev-pit_8253.o
 .comment       0x000000000000003d       0x3e /home/harry/Desktop/SOS/obj/x86-dev-vga_console.o
 .comment       0x000000000000003d       0x3e /home/harry/Desktop/SOS/obj/x86-interrupts.o
 .comment       0x000000000000003d       0x3e /home/harry/Desktop/SOS/obj/x86-dev-rtc.o
 .comment       0x000000000000003d       0x3e /home/harry/Desktop/SOS/obj/x86-dev-pic_8259a.o
 .comment       0x000000000000003d       0x3e /home/harry/Desktop/SOS/obj/x86-dev-keyboard.o
 .comment       0x000000000000003d       0x3e /home/harry/Desktop/SOS/obj/arch.o
 .comment       0x000000000000003d       0x3e /home/harry/Desktop/SOS/obj/error.o
 .comment       0x000000000000003d       0x3e /home/harry/Desktop/SOS/obj/input.o
 .comment       0x000000000000003d       0x3e /home/harry/Desktop/SOS/obj/syscall.o
 .comment       0x000000000000003d       0x3e /home/harry/Desktop/SOS/obj/x86-vm.o
 .comment       0x000000000000003d       0x3e /home/harry/Desktop/SOS/obj/x86-vm2.o
 .comment       0x000000000000003d       0x3e /home/harry/Desktop/SOS/obj/kernelinteract.o

.note.GNU-stack
                0x0000000000000000        0x0
 .note.GNU-stack
                0x0000000000000000        0x0 kernel.o
 .note.GNU-stack
                0x0000000000000000        0x0 b__kernel.o
 .note.GNU-stack
                0x0000000000000000        0x0 /home/harry/Desktop/SOS/obj/common.o
 .note.GNU-stack
                0x0000000000000000        0x0 /home/harry/Desktop/SOS/obj/console.o
 .note.GNU-stack
                0x0000000000000000        0x0 /home/harry/Desktop/SOS/obj/consoleb.o
 .note.GNU-stack
                0x0000000000000000        0x0 /home/harry/Desktop/SOS/obj/mmap.o
 .note.GNU-stack
                0x0000000000000000        0x0 /home/harry/Desktop/SOS/obj/multiboot.o
 .note.GNU-stack
                0x0000000000000000        0x0 /home/harry/Desktop/SOS/obj/x86.o
 .note.GNU-stack
                0x0000000000000000        0x0 /home/harry/Desktop/SOS/obj/x86-debug.o
 .note.GNU-stack
                0x0000000000000000        0x0 /home/harry/Desktop/SOS/obj/x86-dev.o
 .note.GNU-stack
                0x0000000000000000        0x0 /home/harry/Desktop/SOS/obj/x86-dev-pit_8253.o
 .note.GNU-stack
                0x0000000000000000        0x0 /home/harry/Desktop/SOS/obj/x86-dev-vga_console.o
 .note.GNU-stack
                0x0000000000000000        0x0 /home/harry/Desktop/SOS/obj/x86-interrupts.o
 .note.GNU-stack
                0x0000000000000000        0x0 /home/harry/Desktop/SOS/obj/x86-dev-rtc.o
 .note.GNU-stack
                0x0000000000000000        0x0 /home/harry/Desktop/SOS/obj/x86-dev-pic_8259a.o
 .note.GNU-stack
                0x0000000000000000        0x0 /home/harry/Desktop/SOS/obj/x86-dev-keyboard.o
 .note.GNU-stack
                0x0000000000000000        0x0 /home/harry/Desktop/SOS/obj/arch.o
 .note.GNU-stack
                0x0000000000000000        0x0 /home/harry/Desktop/SOS/obj/error.o
 .note.GNU-stack
                0x0000000000000000        0x0 /home/harry/Desktop/SOS/obj/input.o
 .note.GNU-stack
                0x0000000000000000        0x0 /home/harry/Desktop/SOS/obj/syscall.o
 .note.GNU-stack
                0x0000000000000000        0x0 /home/harry/Desktop/SOS/obj/x86-vm.o
 .note.GNU-stack
                0x0000000000000000        0x0 /home/harry/Desktop/SOS/obj/x86-vm2.o
 .note.GNU-stack
                0x0000000000000000        0x0 /home/harry/Desktop/SOS/obj/kernelinteract.o

.debug_ranges   0x0000000000000000       0x30
 .debug_ranges  0x0000000000000000       0x30 /home/harry/Desktop/SOS/obj/x86-vm2.o
